target datalayout = "e-m:e-p270:32:32-p271:32:32-p272:64:64-i64:64-i128:128-f80:128-n8:16:32:64-S128"
target triple = "x86_64-pc-linux-gnu"

%struct.mp_buf = type { ptr, i64, i64 }

; Function Attrs: nounwind uwtable
define dso_local ptr @mp_realloc(ptr noundef %0, ptr noundef %1, i64 noundef %2, i64 noundef %3) #0 {
  %5 = alloca ptr, align 8
  %6 = alloca ptr, align 8
  %7 = alloca i64, align 8
  %8 = alloca i64, align 8
  %9 = alloca ptr, align 8
  %10 = alloca ptr, align 8
  store ptr %0, ptr %5, align 8, !tbaa !17
  store ptr %1, ptr %6, align 8, !tbaa !4
  store i64 %2, ptr %7, align 8, !tbaa !8
  store i64 %3, ptr %8, align 8, !tbaa !8
  call void @llvm.lifetime.start.p0(i64 8, ptr %9) #6
  store ptr null, ptr %9, align 8, !tbaa !4
  call void @llvm.lifetime.start.p0(i64 8, ptr %10) #6
  %11 = load ptr, ptr %5, align 8, !tbaa !17
  %12 = call ptr @lua_getallocf(ptr noundef %11, ptr noundef %10)
  store ptr %12, ptr %9, align 8, !tbaa !4
  %13 = load ptr, ptr %9, align 8, !tbaa !4
  %14 = load ptr, ptr %10, align 8, !tbaa !4
  %15 = load ptr, ptr %6, align 8, !tbaa !4
  %16 = load i64, ptr %7, align 8, !tbaa !8
  %17 = load i64, ptr %8, align 8, !tbaa !8
  %18 = call ptr %13(ptr noundef %14, ptr noundef %15, i64 noundef %16, i64 noundef %17)
  call void @llvm.lifetime.end.p0(i64 8, ptr %10) #6
  call void @llvm.lifetime.end.p0(i64 8, ptr %9) #6
  ret ptr %18
}

; Function Attrs: nounwind uwtable
define dso_local void @mp_buf_append(ptr noundef %0, ptr noundef %1, ptr noundef %2, i64 noundef %3) #0 {
  %5 = alloca ptr, align 8
  %6 = alloca ptr, align 8
  %7 = alloca ptr, align 8
  %8 = alloca i64, align 8
  %9 = alloca i64, align 8
  store ptr %0, ptr %5, align 8, !tbaa !17
  store ptr %1, ptr %6, align 8, !tbaa !19
  store ptr %2, ptr %7, align 8, !tbaa !10
  store i64 %3, ptr %8, align 8, !tbaa !8
  %10 = load ptr, ptr %6, align 8, !tbaa !19
  %11 = getelementptr inbounds nuw %struct.mp_buf, ptr %10, i32 0, i32 2
  %12 = load i64, ptr %11, align 8, !tbaa !23
  %13 = load i64, ptr %8, align 8, !tbaa !8
  %14 = icmp ult i64 %12, %13
  br i1 %14, label %15, label %55

15:                                               ; preds = %4
  call void @llvm.lifetime.start.p0(i64 8, ptr %9) #6
  %16 = load ptr, ptr %6, align 8, !tbaa !19
  %17 = getelementptr inbounds nuw %struct.mp_buf, ptr %16, i32 0, i32 1
  %18 = load i64, ptr %17, align 8, !tbaa !24
  %19 = load i64, ptr %8, align 8, !tbaa !8
  %20 = add i64 %18, %19
  store i64 %20, ptr %9, align 8, !tbaa !8
  %21 = load i64, ptr %9, align 8, !tbaa !8
  %22 = load ptr, ptr %6, align 8, !tbaa !19
  %23 = getelementptr inbounds nuw %struct.mp_buf, ptr %22, i32 0, i32 1
  %24 = load i64, ptr %23, align 8, !tbaa !24
  %25 = icmp ult i64 %21, %24
  br i1 %25, label %29, label %26

26:                                               ; preds = %15
  %27 = load i64, ptr %9, align 8, !tbaa !8
  %28 = icmp uge i64 %27, 9223372036854775807
  br i1 %28, label %29, label %30

29:                                               ; preds = %26, %15
  call void @abort() #7
  unreachable

30:                                               ; preds = %26
  %31 = load i64, ptr %9, align 8, !tbaa !8
  %32 = mul i64 %31, 2
  store i64 %32, ptr %9, align 8, !tbaa !8
  %33 = load ptr, ptr %5, align 8, !tbaa !17
  %34 = load ptr, ptr %6, align 8, !tbaa !19
  %35 = getelementptr inbounds nuw %struct.mp_buf, ptr %34, i32 0, i32 0
  %36 = load ptr, ptr %35, align 8, !tbaa !21
  %37 = load ptr, ptr %6, align 8, !tbaa !19
  %38 = getelementptr inbounds nuw %struct.mp_buf, ptr %37, i32 0, i32 1
  %39 = load i64, ptr %38, align 8, !tbaa !24
  %40 = load ptr, ptr %6, align 8, !tbaa !19
  %41 = getelementptr inbounds nuw %struct.mp_buf, ptr %40, i32 0, i32 2
  %42 = load i64, ptr %41, align 8, !tbaa !23
  %43 = add i64 %39, %42
  %44 = load i64, ptr %9, align 8, !tbaa !8
  %45 = call ptr @mp_realloc(ptr noundef %33, ptr noundef %36, i64 noundef %43, i64 noundef %44)
  %46 = load ptr, ptr %6, align 8, !tbaa !19
  %47 = getelementptr inbounds nuw %struct.mp_buf, ptr %46, i32 0, i32 0
  store ptr %45, ptr %47, align 8, !tbaa !21
  %48 = load i64, ptr %9, align 8, !tbaa !8
  %49 = load ptr, ptr %6, align 8, !tbaa !19
  %50 = getelementptr inbounds nuw %struct.mp_buf, ptr %49, i32 0, i32 1
  %51 = load i64, ptr %50, align 8, !tbaa !24
  %52 = sub i64 %48, %51
  %53 = load ptr, ptr %6, align 8, !tbaa !19
  %54 = getelementptr inbounds nuw %struct.mp_buf, ptr %53, i32 0, i32 2
  store i64 %52, ptr %54, align 8, !tbaa !23
  call void @llvm.lifetime.end.p0(i64 8, ptr %9) #6
  br label %55

55:                                               ; preds = %30, %4
  %56 = load ptr, ptr %6, align 8, !tbaa !19
  %57 = getelementptr inbounds nuw %struct.mp_buf, ptr %56, i32 0, i32 0
  %58 = load ptr, ptr %57, align 8, !tbaa !21
  %59 = load ptr, ptr %6, align 8, !tbaa !19
  %60 = getelementptr inbounds nuw %struct.mp_buf, ptr %59, i32 0, i32 1
  %61 = load i64, ptr %60, align 8, !tbaa !24
  %62 = getelementptr inbounds nuw i8, ptr %58, i64 %61
  %63 = load ptr, ptr %7, align 8, !tbaa !10
  %64 = load i64, ptr %8, align 8, !tbaa !8
  call void @llvm.memcpy.p0.p0.i64(ptr align 1 %62, ptr align 1 %63, i64 %64, i1 false)
  %65 = load i64, ptr %8, align 8, !tbaa !8
  %66 = load ptr, ptr %6, align 8, !tbaa !19
  %67 = getelementptr inbounds nuw %struct.mp_buf, ptr %66, i32 0, i32 1
  %68 = load i64, ptr %67, align 8, !tbaa !24
  %69 = add i64 %68, %65
  store i64 %69, ptr %67, align 8, !tbaa !24
  %70 = load i64, ptr %8, align 8, !tbaa !8
  %71 = load ptr, ptr %6, align 8, !tbaa !19
  %72 = getelementptr inbounds nuw %struct.mp_buf, ptr %71, i32 0, i32 2
  %73 = load i64, ptr %72, align 8, !tbaa !23
  %74 = sub i64 %73, %70
  store i64 %74, ptr %72, align 8, !tbaa !23
  ret void
}

; Function Attrs: nounwind uwtable
define dso_local void @mp_encode_bytes(ptr noundef %0, ptr noundef %1, ptr noundef %2, i64 noundef %3) #0 {
  %5 = alloca ptr, align 8
  %6 = alloca ptr, align 8
  %7 = alloca ptr, align 8
  %8 = alloca i64, align 8
  %9 = alloca [5 x i8], align 1
  %10 = alloca i64, align 8
  store ptr %0, ptr %5, align 8, !tbaa !17
  store ptr %1, ptr %6, align 8, !tbaa !19
  store ptr %2, ptr %7, align 8, !tbaa !10
  store i64 %3, ptr %8, align 8, !tbaa !8
  call void @llvm.lifetime.start.p0(i64 5, ptr %9) #6
  call void @llvm.lifetime.start.p0(i64 8, ptr %10) #6
  %11 = load i64, ptr %8, align 8, !tbaa !8
  %12 = icmp ult i64 %11, 32
  br i1 %12, label %13, label %19

13:                                               ; preds = %4
  %14 = load i64, ptr %8, align 8, !tbaa !8
  %15 = and i64 %14, 255
  %16 = or i64 160, %15
  %17 = trunc i64 %16 to i8
  %18 = getelementptr inbounds [5 x i8], ptr %9, i64 0, i64 0
  store i8 %17, ptr %18, align 1, !tbaa !14
  store i64 1, ptr %10, align 8, !tbaa !8
  br label %64

19:                                               ; preds = %4
  %20 = load i64, ptr %8, align 8, !tbaa !8
  %21 = icmp ule i64 %20, 255
  br i1 %21, label %22, label %27

22:                                               ; preds = %19
  %23 = getelementptr inbounds [5 x i8], ptr %9, i64 0, i64 0
  store i8 -39, ptr %23, align 1, !tbaa !14
  %24 = load i64, ptr %8, align 8, !tbaa !8
  %25 = trunc i64 %24 to i8
  %26 = getelementptr inbounds [5 x i8], ptr %9, i64 0, i64 1
  store i8 %25, ptr %26, align 1, !tbaa !14
  store i64 2, ptr %10, align 8, !tbaa !8
  br label %63

27:                                               ; preds = %19
  %28 = load i64, ptr %8, align 8, !tbaa !8
  %29 = icmp ule i64 %28, 65535
  br i1 %29, label %30, label %41

30:                                               ; preds = %27
  %31 = getelementptr inbounds [5 x i8], ptr %9, i64 0, i64 0
  store i8 -38, ptr %31, align 1, !tbaa !14
  %32 = load i64, ptr %8, align 8, !tbaa !8
  %33 = and i64 %32, 65280
  %34 = lshr i64 %33, 8
  %35 = trunc i64 %34 to i8
  %36 = getelementptr inbounds [5 x i8], ptr %9, i64 0, i64 1
  store i8 %35, ptr %36, align 1, !tbaa !14
  %37 = load i64, ptr %8, align 8, !tbaa !8
  %38 = and i64 %37, 255
  %39 = trunc i64 %38 to i8
  %40 = getelementptr inbounds [5 x i8], ptr %9, i64 0, i64 2
  store i8 %39, ptr %40, align 1, !tbaa !14
  store i64 3, ptr %10, align 8, !tbaa !8
  br label %62

41:                                               ; preds = %27
  %42 = getelementptr inbounds [5 x i8], ptr %9, i64 0, i64 0
  store i8 -37, ptr %42, align 1, !tbaa !14
  %43 = load i64, ptr %8, align 8, !tbaa !8
  %44 = and i64 %43, 4278190080
  %45 = lshr i64 %44, 24
  %46 = trunc i64 %45 to i8
  %47 = getelementptr inbounds [5 x i8], ptr %9, i64 0, i64 1
  store i8 %46, ptr %47, align 1, !tbaa !14
  %48 = load i64, ptr %8, align 8, !tbaa !8
  %49 = and i64 %48, 16711680
  %50 = lshr i64 %49, 16
  %51 = trunc i64 %50 to i8
  %52 = getelementptr inbounds [5 x i8], ptr %9, i64 0, i64 2
  store i8 %51, ptr %52, align 1, !tbaa !14
  %53 = load i64, ptr %8, align 8, !tbaa !8
  %54 = and i64 %53, 65280
  %55 = lshr i64 %54, 8
  %56 = trunc i64 %55 to i8
  %57 = getelementptr inbounds [5 x i8], ptr %9, i64 0, i64 3
  store i8 %56, ptr %57, align 1, !tbaa !14
  %58 = load i64, ptr %8, align 8, !tbaa !8
  %59 = and i64 %58, 255
  %60 = trunc i64 %59 to i8
  %61 = getelementptr inbounds [5 x i8], ptr %9, i64 0, i64 4
  store i8 %60, ptr %61, align 1, !tbaa !14
  store i64 5, ptr %10, align 8, !tbaa !8
  br label %62

62:                                               ; preds = %41, %30
  br label %63

63:                                               ; preds = %62, %22
  br label %64

64:                                               ; preds = %63, %13
  %65 = load ptr, ptr %5, align 8, !tbaa !17
  %66 = load ptr, ptr %6, align 8, !tbaa !19
  %67 = getelementptr inbounds [5 x i8], ptr %9, i64 0, i64 0
  %68 = load i64, ptr %10, align 8, !tbaa !8
  call void @mp_buf_append(ptr noundef %65, ptr noundef %66, ptr noundef %67, i64 noundef %68)
  %69 = load ptr, ptr %5, align 8, !tbaa !17
  %70 = load ptr, ptr %6, align 8, !tbaa !19
  %71 = load ptr, ptr %7, align 8, !tbaa !10
  %72 = load i64, ptr %8, align 8, !tbaa !8
  call void @mp_buf_append(ptr noundef %69, ptr noundef %70, ptr noundef %71, i64 noundef %72)
  call void @llvm.lifetime.end.p0(i64 8, ptr %10) #6
  call void @llvm.lifetime.end.p0(i64 5, ptr %9) #6
  ret void
}