; Function Attrs: nounwind uwtable
define dso_local void @mp_encode_bytes(ptr noundef %0, ptr noundef captures(none) %1, ptr noundef readonly captures(none) %2, i64 noundef %3) local_unnamed_addr #2 {
  %5 = alloca ptr, align 8
  %6 = alloca ptr, align 8
  %7 = alloca [5 x i8], align 1
  call void @llvm.lifetime.start.p0(i64 5, ptr nonnull %7)
  %8 = icmp ult i64 %3, 32
  br i1 %8, label %9, label %12

9:                                                ; preds = %4
  %10 = trunc nuw i64 %3 to i8
  %11 = or disjoint i8 %10, -96
  store i8 %11, ptr %7, align 1, !tbaa !4
  br label %30

12:                                               ; preds = %4
  %13 = icmp ult i64 %3, 256
  br i1 %13, label %14, label %16

14:                                               ; preds = %12
  store i8 -39, ptr %7, align 1, !tbaa !4
  %15 = trunc nuw i64 %3 to i8
  %.1..1..1..sroa_idx31 = getelementptr inbounds nuw i8, ptr %7, i64 1
  store i8 %15, ptr %.1..1..1..sroa_idx31, align 1, !tbaa !4
  br label %30

16:                                               ; preds = %12
  %17 = icmp ult i64 %3, 65536
  br i1 %17, label %18, label %22

18:                                               ; preds = %16
  store i8 -38, ptr %7, align 1, !tbaa !4
  %19 = lshr i64 %3, 8
  %20 = trunc nuw i64 %19 to i8
  %.1..1..1..sroa_idx = getelementptr inbounds nuw i8, ptr %7, i64 1
  store i8 %20, ptr %.1..1..1..sroa_idx, align 1, !tbaa !4
  %21 = trunc i64 %3 to i8
  %.2..2..2..sroa_idx32 = getelementptr inbounds nuw i8, ptr %7, i64 2
  store i8 %21, ptr %.2..2..2..sroa_idx32, align 1, !tbaa !4
  br label %30

22:                                               ; preds = %16
  store i8 -37, ptr %7, align 1, !tbaa !4
  %23 = lshr i64 %3, 24
  %24 = trunc i64 %23 to i8
  %.1..1..1..sroa_idx30 = getelementptr inbounds nuw i8, ptr %7, i64 1
  store i8 %24, ptr %.1..1..1..sroa_idx30, align 1, !tbaa !4
  %25 = lshr i64 %3, 16
  %26 = trunc i64 %25 to i8
  %.2..2..2..sroa_idx = getelementptr inbounds nuw i8, ptr %7, i64 2
  store i8 %26, ptr %.2..2..2..sroa_idx, align 1, !tbaa !4
  %27 = lshr i64 %3, 8
  %28 = trunc i64 %27 to i8
  %.3..3..3..sroa_idx = getelementptr inbounds nuw i8, ptr %7, i64 3
  store i8 %28, ptr %.3..3..3..sroa_idx, align 1, !tbaa !4
  %29 = trunc i64 %3 to i8
  %.4..4..4..sroa_idx = getelementptr inbounds nuw i8, ptr %7, i64 4
  store i8 %29, ptr %.4..4..4..sroa_idx, align 1, !tbaa !4
  br label %30

30:                                               ; preds = %14, %22, %18, %9
  %.0 = phi i64 [ 1, %9 ], [ 2, %14 ], [ 3, %18 ], [ 5, %22 ]
  %31 = getelementptr inbounds nuw i8, ptr %1, i64 16
  %32 = load i64, ptr %31, align 8, !tbaa !11
  %33 = icmp ult i64 %32, %.0
  br i1 %33, label %34, label %._crit_edge.i

._crit_edge.i:                                    ; preds = %30
  %.pre.i = load ptr, ptr %1, align 8, !tbaa !15
  %.phi.trans.insert.i = getelementptr inbounds nuw i8, ptr %1, i64 8
  %.pre28.i = load i64, ptr %.phi.trans.insert.i, align 8, !tbaa !16
  br label %mp_buf_append.exit

34:                                               ; preds = %30
  %35 = getelementptr inbounds nuw i8, ptr %1, i64 8
  %36 = load i64, ptr %35, align 8, !tbaa !16
  %37 = add i64 %36, %.0
  %38 = icmp ult i64 %37, %36
  %39 = icmp ugt i64 %37, 9223372036854775806
  %or.cond.i = or i1 %38, %39
  br i1 %or.cond.i, label %40, label %41

40:                                               ; preds = %34
  tail call void @abort() #11
  unreachable

41:                                               ; preds = %34
  %42 = shl nuw i64 %37, 1
  %43 = load ptr, ptr %1, align 8, !tbaa !15
  %44 = add i64 %36, %32
  call void @llvm.lifetime.start.p0(i64 8, ptr nonnull %6) #10
  %45 = call ptr @lua_getallocf(ptr noundef %0, ptr noundef nonnull %6) #10
  %46 = load ptr, ptr %6, align 8, !tbaa !9
  %47 = call ptr %45(ptr noundef %46, ptr noundef %43, i64 noundef %44, i64 noundef %42) #10
  call void @llvm.lifetime.end.p0(i64 8, ptr nonnull %6) #10
  store ptr %47, ptr %1, align 8, !tbaa !15
  %48 = load i64, ptr %35, align 8, !tbaa !16
  %49 = sub i64 %42, %48
  store i64 %49, ptr %31, align 8, !tbaa !11
  br label %mp_buf_append.exit

mp_buf_append.exit:                               ; preds = %._crit_edge.i, %41
  %50 = phi i64 [ %.pre28.i, %._crit_edge.i ], [ %48, %41 ]
  %51 = phi ptr [ %.pre.i, %._crit_edge.i ], [ %47, %41 ]
  %52 = getelementptr inbounds nuw i8, ptr %1, i64 8
  %53 = getelementptr inbounds nuw i8, ptr %51, i64 %50
  call void @llvm.memcpy.p0.p0.i64(ptr noundef nonnull align 1 dereferenceable(1) %53, ptr noundef nonnull readonly align 1 dereferenceable(1) %7, i64 %.0, i1 false)
  %54 = load i64, ptr %52, align 8, !tbaa !16
  %55 = add i64 %54, %.0
  store i64 %55, ptr %52, align 8, !tbaa !16
  %56 = load i64, ptr %31, align 8, !tbaa !11
  %57 = sub i64 %56, %.0
  store i64 %57, ptr %31, align 8, !tbaa !11
  %58 = icmp ult i64 %57, %3
  br i1 %58, label %59, label %._crit_edge.i18

._crit_edge.i18:                                  ; preds = %mp_buf_append.exit
  %.pre.i19 = load ptr, ptr %1, align 8, !tbaa !15
  br label %mp_buf_append.exit23

59:                                               ; preds = %mp_buf_append.exit
  %60 = add i64 %55, %3
  %61 = icmp ult i64 %60, %55
  %62 = icmp ugt i64 %60, 9223372036854775806
  %or.cond.i22 = or i1 %61, %62
  br i1 %or.cond.i22, label %63, label %64

63:                                               ; preds = %59
  call void @abort() #11
  unreachable

64:                                               ; preds = %59
  %65 = shl nuw i64 %60, 1
  %66 = load ptr, ptr %1, align 8, !tbaa !15
  %67 = add i64 %56, %54
  call void @llvm.lifetime.start.p0(i64 8, ptr nonnull %5) #10
  %68 = call ptr @lua_getallocf(ptr noundef %0, ptr noundef nonnull %5) #10
  %69 = load ptr, ptr %5, align 8, !tbaa !9
  %70 = call ptr %68(ptr noundef %69, ptr noundef %66, i64 noundef %67, i64 noundef %65) #10
  call void @llvm.lifetime.end.p0(i64 8, ptr nonnull %5) #10
  store ptr %70, ptr %1, align 8, !tbaa !15
  %71 = load i64, ptr %52, align 8, !tbaa !16
  %72 = sub i64 %65, %71
  store i64 %72, ptr %31, align 8, !tbaa !11
  br label %mp_buf_append.exit23

mp_buf_append.exit23:                             ; preds = %._crit_edge.i18, %64
  %73 = phi i64 [ %55, %._crit_edge.i18 ], [ %71, %64 ]
  %74 = phi ptr [ %.pre.i19, %._crit_edge.i18 ], [ %70, %64 ]
  %75 = getelementptr inbounds nuw i8, ptr %74, i64 %73
  call void @llvm.memcpy.p0.p0.i64(ptr align 1 %75, ptr readonly align 1 %2, i64 %3, i1 false)
  %76 = load i64, ptr %52, align 8, !tbaa !16
  %77 = add i64 %76, %3
  store i64 %77, ptr %52, align 8, !tbaa !16
  %78 = load i64, ptr %31, align 8, !tbaa !11
  %79 = sub i64 %78, %3
  store i64 %79, ptr %31, align 8, !tbaa !11
  call void @llvm.lifetime.end.p0(i64 5, ptr nonnull %7)
  ret void
}